target datalayout = "e-m:e-p270:32:32-p271:32:32-p272:64:64-i64:64-i128:128-f80:128-n8:16:32:64-S128"
target triple = "x86_64-pc-linux-gnu"

; Function Attrs: nounwind uwtable
define internal void @put_h264_chroma_mc1_8_c(ptr noundef %0, ptr noundef %1, i64 noundef %2, i32 noundef %3, i32 noundef %4, i32 noundef %5) #1 {
  %7 = alloca ptr, align 8
  %8 = alloca ptr, align 8
  %9 = alloca i64, align 8
  %10 = alloca i32, align 4
  %11 = alloca i32, align 4
  %12 = alloca i32, align 4
  %13 = alloca ptr, align 8
  %14 = alloca ptr, align 8
  %15 = alloca i32, align 4
  %16 = alloca i32, align 4
  %17 = alloca i32, align 4
  %18 = alloca i32, align 4
  %19 = alloca i32, align 4
  %20 = alloca i32, align 4
  %21 = alloca i32, align 4
  store ptr %0, ptr %7, align 8, !tbaa !12
  store ptr %1, ptr %8, align 8, !tbaa !12
  store i64 %2, ptr %9, align 8, !tbaa !14
  store i32 %3, ptr %10, align 4, !tbaa !9
  store i32 %4, ptr %11, align 4, !tbaa !9
  store i32 %5, ptr %12, align 4, !tbaa !9
  call void @llvm.lifetime.start.p0(i64 8, ptr %13) #3
  %22 = load ptr, ptr %7, align 8, !tbaa !12
  store ptr %22, ptr %13, align 8, !tbaa !12
  call void @llvm.lifetime.start.p0(i64 8, ptr %14) #3
  %23 = load ptr, ptr %8, align 8, !tbaa !12
  store ptr %23, ptr %14, align 8, !tbaa !12
  call void @llvm.lifetime.start.p0(i64 4, ptr %15) #3
  %24 = load i32, ptr %11, align 4, !tbaa !9
  %25 = sub nsw i32 8, %24
  %26 = load i32, ptr %12, align 4, !tbaa !9
  %27 = sub nsw i32 8, %26
  %28 = mul nsw i32 %25, %27
  store i32 %28, ptr %15, align 4, !tbaa !9
  call void @llvm.lifetime.start.p0(i64 4, ptr %16) #3
  %29 = load i32, ptr %11, align 4, !tbaa !9
  %30 = load i32, ptr %12, align 4, !tbaa !9
  %31 = sub nsw i32 8, %30
  %32 = mul nsw i32 %29, %31
  store i32 %32, ptr %16, align 4, !tbaa !9
  call void @llvm.lifetime.start.p0(i64 4, ptr %17) #3
  %33 = load i32, ptr %11, align 4, !tbaa !9
  %34 = sub nsw i32 8, %33
  %35 = load i32, ptr %12, align 4, !tbaa !9
  %36 = mul nsw i32 %34, %35
  store i32 %36, ptr %17, align 4, !tbaa !9
  call void @llvm.lifetime.start.p0(i64 4, ptr %18) #3
  %37 = load i32, ptr %11, align 4, !tbaa !9
  %38 = load i32, ptr %12, align 4, !tbaa !9
  %39 = mul nsw i32 %37, %38
  store i32 %39, ptr %18, align 4, !tbaa !9
  call void @llvm.lifetime.start.p0(i64 4, ptr %19) #3
  %40 = load i64, ptr %9, align 8, !tbaa !14
  %41 = ashr i64 %40, 0
  store i64 %41, ptr %9, align 8, !tbaa !14
  %42 = load i32, ptr %18, align 4, !tbaa !9
  %43 = icmp ne i32 %42, 0
  br i1 %43, label %44, label %96

44:                                               ; preds = %6
  store i32 0, ptr %19, align 4, !tbaa !9
  br label %45

45:                                               ; preds = %92, %44
  %46 = load i32, ptr %19, align 4, !tbaa !9
  %47 = load i32, ptr %10, align 4, !tbaa !9
  %48 = icmp slt i32 %46, %47
  br i1 %48, label %49, label %95

49:                                               ; preds = %45
  %50 = load i32, ptr %15, align 4, !tbaa !9
  %51 = load ptr, ptr %14, align 8, !tbaa !12
  %52 = getelementptr inbounds i8, ptr %51, i64 0
  %53 = load i8, ptr %52, align 1, !tbaa !45
  %54 = zext i8 %53 to i32
  %55 = mul nsw i32 %50, %54
  %56 = load i32, ptr %16, align 4, !tbaa !9
  %57 = load ptr, ptr %14, align 8, !tbaa !12
  %58 = getelementptr inbounds i8, ptr %57, i64 1
  %59 = load i8, ptr %58, align 1, !tbaa !45
  %60 = zext i8 %59 to i32
  %61 = mul nsw i32 %56, %60
  %62 = add nsw i32 %55, %61
  %63 = load i32, ptr %17, align 4, !tbaa !9
  %64 = load ptr, ptr %14, align 8, !tbaa !12
  %65 = load i64, ptr %9, align 8, !tbaa !14
  %66 = add nsw i64 %65, 0
  %67 = getelementptr inbounds i8, ptr %64, i64 %66
  %68 = load i8, ptr %67, align 1, !tbaa !45
  %69 = zext i8 %68 to i32
  %70 = mul nsw i32 %63, %69
  %71 = add nsw i32 %62, %70
  %72 = load i32, ptr %18, align 4, !tbaa !9
  %73 = load ptr, ptr %14, align 8, !tbaa !12
  %74 = load i64, ptr %9, align 8, !tbaa !14
  %75 = add nsw i64 %74, 1
  %76 = getelementptr inbounds i8, ptr %73, i64 %75
  %77 = load i8, ptr %76, align 1, !tbaa !45
  %78 = zext i8 %77 to i32
  %79 = mul nsw i32 %72, %78
  %80 = add nsw i32 %71, %79
  %81 = add nsw i32 %80, 32
  %82 = ashr i32 %81, 6
  %83 = trunc i32 %82 to i8
  %84 = load ptr, ptr %13, align 8, !tbaa !12
  %85 = getelementptr inbounds i8, ptr %84, i64 0
  store i8 %83, ptr %85, align 1, !tbaa !45
  %86 = load i64, ptr %9, align 8, !tbaa !14
  %87 = load ptr, ptr %13, align 8, !tbaa !12
  %88 = getelementptr inbounds i8, ptr %87, i64 %86
  store ptr %88, ptr %13, align 8, !tbaa !12
  %89 = load i64, ptr %9, align 8, !tbaa !14
  %90 = load ptr, ptr %14, align 8, !tbaa !12
  %91 = getelementptr inbounds i8, ptr %90, i64 %89
  store ptr %91, ptr %14, align 8, !tbaa !12
  br label %92

92:                                               ; preds = %49
  %93 = load i32, ptr %19, align 4, !tbaa !9
  %94 = add nsw i32 %93, 1
  store i32 %94, ptr %19, align 4, !tbaa !9
  br label %45, !llvm.loop !55

95:                                               ; preds = %45
  br label %177

96:                                               ; preds = %6
  %97 = load i32, ptr %16, align 4, !tbaa !9
  %98 = load i32, ptr %17, align 4, !tbaa !9
  %99 = add nsw i32 %97, %98
  %100 = icmp ne i32 %99, 0
  br i1 %100, label %101, label %149

101:                                              ; preds = %96
  call void @llvm.lifetime.start.p0(i64 4, ptr %20) #3
  %102 = load i32, ptr %16, align 4, !tbaa !9
  %103 = load i32, ptr %17, align 4, !tbaa !9
  %104 = add nsw i32 %102, %103
  store i32 %104, ptr %20, align 4, !tbaa !9
  call void @llvm.lifetime.start.p0(i64 4, ptr %21) #3
  %105 = load i32, ptr %17, align 4, !tbaa !9
  %106 = icmp ne i32 %105, 0
  br i1 %106, label %107, label %109

107:                                              ; preds = %101
  %108 = load i64, ptr %9, align 8, !tbaa !14
  br label %110

109:                                              ; preds = %101
  br label %110

110:                                              ; preds = %109, %107
  %111 = phi i64 [ %108, %107 ], [ 1, %109 ]
  %112 = trunc i64 %111 to i32
  store i32 %112, ptr %21, align 4, !tbaa !9
  store i32 0, ptr %19, align 4, !tbaa !9
  br label %113

113:                                              ; preds = %145, %110
  %114 = load i32, ptr %19, align 4, !tbaa !9
  %115 = load i32, ptr %10, align 4, !tbaa !9
  %116 = icmp slt i32 %114, %115
  br i1 %116, label %117, label %148

117:                                              ; preds = %113
  %118 = load i32, ptr %15, align 4, !tbaa !9
  %119 = load ptr, ptr %14, align 8, !tbaa !12
  %120 = getelementptr inbounds i8, ptr %119, i64 0
  %121 = load i8, ptr %120, align 1, !tbaa !45
  %122 = zext i8 %121 to i32
  %123 = mul nsw i32 %118, %122
  %124 = load i32, ptr %20, align 4, !tbaa !9
  %125 = load ptr, ptr %14, align 8, !tbaa !12
  %126 = load i32, ptr %21, align 4, !tbaa !9
  %127 = add nsw i32 %126, 0
  %128 = sext i32 %127 to i64
  %129 = getelementptr inbounds i8, ptr %125, i64 %128
  %130 = load i8, ptr %129, align 1, !tbaa !45
  %131 = zext i8 %130 to i32
  %132 = mul nsw i32 %124, %131
  %133 = add nsw i32 %123, %132
  %134 = add nsw i32 %133, 32
  %135 = ashr i32 %134, 6
  %136 = trunc i32 %135 to i8
  %137 = load ptr, ptr %13, align 8, !tbaa !12
  %138 = getelementptr inbounds i8, ptr %137, i64 0
  store i8 %136, ptr %138, align 1, !tbaa !45
  %139 = load i64, ptr %9, align 8, !tbaa !14
  %140 = load ptr, ptr %13, align 8, !tbaa !12
  %141 = getelementptr inbounds i8, ptr %140, i64 %139
  store ptr %141, ptr %13, align 8, !tbaa !12
  %142 = load i64, ptr %9, align 8, !tbaa !14
  %143 = load ptr, ptr %14, align 8, !tbaa !12
  %144 = getelementptr inbounds i8, ptr %143, i64 %142
  store ptr %144, ptr %14, align 8, !tbaa !12
  br label %145

145:                                              ; preds = %117
  %146 = load i32, ptr %19, align 4, !tbaa !9
  %147 = add nsw i32 %146, 1
  store i32 %147, ptr %19, align 4, !tbaa !9
  br label %113, !llvm.loop !56

148:                                              ; preds = %113
  call void @llvm.lifetime.end.p0(i64 4, ptr %21) #3
  call void @llvm.lifetime.end.p0(i64 4, ptr %20) #3
  br label %176

149:                                              ; preds = %96
  store i32 0, ptr %19, align 4, !tbaa !9
  br label %150

150:                                              ; preds = %172, %149
  %151 = load i32, ptr %19, align 4, !tbaa !9
  %152 = load i32, ptr %10, align 4, !tbaa !9
  %153 = icmp slt i32 %151, %152
  br i1 %153, label %154, label %175

154:                                              ; preds = %150
  %155 = load i32, ptr %15, align 4, !tbaa !9
  %156 = load ptr, ptr %14, align 8, !tbaa !12
  %157 = getelementptr inbounds i8, ptr %156, i64 0
  %158 = load i8, ptr %157, align 1, !tbaa !45
  %159 = zext i8 %158 to i32
  %160 = mul nsw i32 %155, %159
  %161 = add nsw i32 %160, 32
  %162 = ashr i32 %161, 6
  %163 = trunc i32 %162 to i8
  %164 = load ptr, ptr %13, align 8, !tbaa !12
  %165 = getelementptr inbounds i8, ptr %164, i64 0
  store i8 %163, ptr %165, align 1, !tbaa !45
  %166 = load i64, ptr %9, align 8, !tbaa !14
  %167 = load ptr, ptr %13, align 8, !tbaa !12
  %168 = getelementptr inbounds i8, ptr %167, i64 %166
  store ptr %168, ptr %13, align 8, !tbaa !12
  %169 = load i64, ptr %9, align 8, !tbaa !14
  %170 = load ptr, ptr %14, align 8, !tbaa !12
  %171 = getelementptr inbounds i8, ptr %170, i64 %169
  store ptr %171, ptr %14, align 8, !tbaa !12
  br label %172

172:                                              ; preds = %154
  %173 = load i32, ptr %19, align 4, !tbaa !9
  %174 = add nsw i32 %173, 1
  store i32 %174, ptr %19, align 4, !tbaa !9
  br label %150, !llvm.loop !57

175:                                              ; preds = %150
  br label %176

176:                                              ; preds = %175, %148
  br label %177

177:                                              ; preds = %176, %95
  call void @llvm.lifetime.end.p0(i64 4, ptr %19) #3
  call void @llvm.lifetime.end.p0(i64 4, ptr %18) #3
  call void @llvm.lifetime.end.p0(i64 4, ptr %17) #3
  call void @llvm.lifetime.end.p0(i64 4, ptr %16) #3
  call void @llvm.lifetime.end.p0(i64 4, ptr %15) #3
  call void @llvm.lifetime.end.p0(i64 8, ptr %14) #3
  call void @llvm.lifetime.end.p0(i64 8, ptr %13) #3
  ret void
}