; Function Attrs: nofree norecurse nosync nounwind memory(argmem: readwrite) uwtable
define internal void @put_h264_chroma_mc1_8_c(ptr noundef writeonly captures(none) %0, ptr noundef readonly captures(none) %1, i64 noundef %2, i32 noundef %3, i32 noundef %4, i32 noundef %5) #1 {
  %7 = sub nsw i32 8, %4
  %8 = sub nsw i32 8, %5
  %9 = mul nsw i32 %8, %7
  %10 = mul nsw i32 %8, %4
  %11 = mul nsw i32 %7, %5
  %12 = mul nsw i32 %5, %4
  %.not = icmp eq i32 %12, 0
  br i1 %.not, label %37, label %.preheader69

.preheader69:                                     ; preds = %6
  %13 = icmp sgt i32 %3, 0
  br i1 %13, label %.lr.ph, label %.loopexit

.lr.ph:                                           ; preds = %.preheader69, %.lr.ph
  %.073 = phi ptr [ %35, %.lr.ph ], [ %0, %.preheader69 ]
  %.05872 = phi i32 [ %36, %.lr.ph ], [ 0, %.preheader69 ]
  %.06171 = phi ptr [ %21, %.lr.ph ], [ %1, %.preheader69 ]
  %14 = load i8, ptr %.06171, align 1, !tbaa !35
  %15 = zext i8 %14 to i32
  %16 = mul nsw i32 %9, %15
  %17 = getelementptr inbounds nuw i8, ptr %.06171, i64 1
  %18 = load i8, ptr %17, align 1, !tbaa !35
  %19 = zext i8 %18 to i32
  %20 = mul nsw i32 %10, %19
  %21 = getelementptr inbounds i8, ptr %.06171, i64 %2
  %22 = load i8, ptr %21, align 1, !tbaa !35
  %23 = zext i8 %22 to i32
  %24 = mul nsw i32 %11, %23
  %25 = getelementptr i8, ptr %21, i64 1
  %26 = load i8, ptr %25, align 1, !tbaa !35
  %27 = zext i8 %26 to i32
  %28 = mul nsw i32 %12, %27
  %29 = add i32 %16, 32
  %30 = add i32 %29, %20
  %31 = add i32 %30, %24
  %32 = add i32 %31, %28
  %33 = lshr i32 %32, 6
  %34 = trunc i32 %33 to i8
  store i8 %34, ptr %.073, align 1, !tbaa !35
  %35 = getelementptr inbounds i8, ptr %.073, i64 %2
  %36 = add nuw nsw i32 %.05872, 1
  %exitcond.not = icmp eq i32 %36, %3
  br i1 %exitcond.not, label %.loopexit, label %.lr.ph, !llvm.loop !45

37:                                               ; preds = %6
  %38 = add nsw i32 %10, %11
  %.not66 = icmp eq i32 %38, 0
  %39 = icmp sgt i32 %3, 0
  br i1 %.not66, label %.preheader, label %40

.preheader:                                       ; preds = %37
  br i1 %39, label %.lr.ph81, label %.loopexit

40:                                               ; preds = %37
  br i1 %39, label %.lr.ph77, label %.loopexit

.lr.ph77:                                         ; preds = %40
  %.not67 = icmp eq i32 %11, 0
  %41 = shl i64 %2, 32
  %42 = ashr exact i64 %41, 32
  %43 = select i1 %.not67, i64 1, i64 %42
  br label %44

44:                                               ; preds = %.lr.ph77, %44
  %.176 = phi ptr [ %0, %.lr.ph77 ], [ %56, %44 ]
  %.15975 = phi i32 [ 0, %.lr.ph77 ], [ %58, %44 ]
  %.16274 = phi ptr [ %1, %.lr.ph77 ], [ %57, %44 ]
  %45 = load i8, ptr %.16274, align 1, !tbaa !35
  %46 = zext i8 %45 to i32
  %47 = mul nsw i32 %9, %46
  %48 = getelementptr inbounds i8, ptr %.16274, i64 %43
  %49 = load i8, ptr %48, align 1, !tbaa !35
  %50 = zext i8 %49 to i32
  %51 = mul nsw i32 %38, %50
  %52 = add i32 %47, 32
  %53 = add i32 %52, %51
  %54 = lshr i32 %53, 6
  %55 = trunc i32 %54 to i8
  store i8 %55, ptr %.176, align 1, !tbaa !35
  %56 = getelementptr inbounds i8, ptr %.176, i64 %2
  %57 = getelementptr inbounds i8, ptr %.16274, i64 %2
  %58 = add nuw nsw i32 %.15975, 1
  %exitcond84.not = icmp eq i32 %58, %3
  br i1 %exitcond84.not, label %.loopexit, label %44, !llvm.loop !46

.lr.ph81:                                         ; preds = %.preheader, %.lr.ph81
  %.280 = phi ptr [ %65, %.lr.ph81 ], [ %0, %.preheader ]
  %.26079 = phi i32 [ %67, %.lr.ph81 ], [ 0, %.preheader ]
  %.26378 = phi ptr [ %66, %.lr.ph81 ], [ %1, %.preheader ]
  %59 = load i8, ptr %.26378, align 1, !tbaa !35
  %60 = zext i8 %59 to i32
  %61 = mul nsw i32 %9, %60
  %62 = add nsw i32 %61, 32
  %63 = lshr i32 %62, 6
  %64 = trunc i32 %63 to i8
  store i8 %64, ptr %.280, align 1, !tbaa !35
  %65 = getelementptr inbounds i8, ptr %.280, i64 %2
  %66 = getelementptr inbounds i8, ptr %.26378, i64 %2
  %67 = add nuw nsw i32 %.26079, 1
  %exitcond85.not = icmp eq i32 %67, %3
  br i1 %exitcond85.not, label %.loopexit, label %.lr.ph81, !llvm.loop !47

.loopexit:                                        ; preds = %.lr.ph, %44, %.lr.ph81, %.preheader69, %40, %.preheader
  ret void
}